(lp0
(lp1
F101.2
aI1
aa(lp2
F98.0
aI0
aa(lp3
F99.1
aI1
aa(lp4
F99.8
aI1
aa(lp5
F100.0
aI0
aa(lp6
F98.3
aI0
aa(lp7
F101.7
aI1
aa(lp8
F100.7
aI1
aa(lp9
F98.9
aI0
aa(lp10
F98.6
aI1
aa(lp11
F99.4
aI0
aa(lp12
F100.3
aI1
aa(lp13
F102.1
aI1
aa(lp14
F101.8
aI1
aa.