(lp0
(lp1
F98.0
aI0
aa(lp2
F98.3
aI0
aa(lp3
F98.6
aI0
aa(lp4
F98.9
aI0
aa(lp5
F99.1
aI0
aa(lp6
F99.4
aI0
aa(lp7
F99.8
aI1
aa(lp8
F100.0
aI1
aa(lp9
F100.3
aI1
aa(lp10
F100.7
aI1
aa(lp11
F101.2
aI1
aa(lp12
F101.7
aI1
aa(lp13
F101.8
aI1
aa(lp14
F102.1
aI1
aa.