(lp0
(lp1
F99.5
aI1
aa(lp2
F97.8
aI0
aa(lp3
F100.1
aI1
aa(lp4
F99.0
aI1
aa(lp5
F100.8
aI1
aa(lp6
F98.0
aI0
aa(lp7
F99.2
aI1
aa(lp8
F101.0
aI1
aa(lp9
F97.6
aI0
aa(lp10
F100.4
aI1
aa(lp11
F98.1
aI0
aa(lp12
F101.3
aI1
aa(lp13
F97.5
aI0
aa(lp14
F99.8
aI1
aa(lp15
F100.2
aI1
aa.